; Function Attrs: mustprogress nounwind uwtable
define internal void @_ZN9grpc_core14SubchannelDataINS_12_GLOBAL__N_121OldWeightedRoundRobin32WeightedRoundRobinSubchannelListENS2_32WeightedRoundRobinSubchannelDataEED2Ev(ptr nocapture noundef nonnull align 8 dereferenceable(48) %this) unnamed_addr #13 align 2 personality ptr @__gxx_personality_v0 {
entry:
  store ptr getelementptr inbounds ({ [5 x ptr] }, ptr @_ZTVN9grpc_core14SubchannelDataINS_12_GLOBAL__N_121OldWeightedRoundRobin32WeightedRoundRobinSubchannelListENS2_32WeightedRoundRobinSubchannelDataEEE, i64 0, i32 0, i64 2), ptr %this, align 8
  %subchannel_ = getelementptr inbounds i8, ptr %this, i64 16
  %0 = load ptr, ptr %subchannel_, align 8
  %cmp.i = icmp eq ptr %0, null
  br i1 %cmp.i, label %do.end, label %if.then

if.then:                                          ; preds = %entry
  invoke void @gpr_assertion_failed(ptr noundef nonnull @.str.33, i32 noundef 292, ptr noundef nonnull @.str.41) #33
          to label %invoke.cont unwind label %terminate.lpad

invoke.cont:                                      ; preds = %if.then
  unreachable

do.end:                                           ; preds = %entry
  %connectivity_status_ = getelementptr inbounds i8, ptr %this, i64 40
  %1 = load i64, ptr %connectivity_status_, align 8
  %and.i.i.i = and i64 %1, 1
  %cmp.i.i.i = icmp eq i64 %and.i.i.i, 0
  br i1 %cmp.i.i.i, label %_ZN9grpc_core13RefCountedPtrINS_19SubchannelInterfaceEED2Ev.exit, label %if.then.i.i

if.then.i.i:                                      ; preds = %do.end
  invoke void @_ZN4absl12lts_202308026Status15UnrefNonInlinedEm(i64 noundef %1)
          to label %_ZN4absl12lts_202308026StatusD2Ev.exit unwind label %terminate.lpad.i

terminate.lpad.i:                                 ; preds = %if.then.i.i
  %2 = landingpad { ptr, i32 }
          catch ptr null
  %3 = extractvalue { ptr, i32 } %2, 0
  tail call void @__clang_call_terminate(ptr %3) #31
  unreachable

_ZN4absl12lts_202308026StatusD2Ev.exit:           ; preds = %if.then.i.i
  %.pre = load ptr, ptr %subchannel_, align 8
  %cmp.not.i = icmp eq ptr %.pre, null
  br i1 %cmp.not.i, label %_ZN9grpc_core13RefCountedPtrINS_19SubchannelInterfaceEED2Ev.exit, label %if.then.i

if.then.i:                                        ; preds = %_ZN4absl12lts_202308026StatusD2Ev.exit
  %refs_.i.i = getelementptr inbounds i8, ptr %.pre, i64 8
  %4 = atomicrmw add ptr %refs_.i.i, i64 -4294967295 acq_rel, align 8
  %shr.i.mask.i.i = and i64 %4, -4294967296
  %cmp.i.i = icmp eq i64 %shr.i.mask.i.i, 4294967296
  br i1 %cmp.i.i, label %if.then.i.i1, label %if.end.i.i

if.then.i.i1:                                     ; preds = %if.then.i
  %vtable.i.i = load ptr, ptr %.pre, align 8
  %5 = load ptr, ptr %vtable.i.i, align 8
  invoke void %5(ptr noundef nonnull align 8 dereferenceable(8) %.pre)
          to label %if.end.i.i unwind label %terminate.lpad.i2

if.end.i.i:                                       ; preds = %if.then.i.i1, %if.then.i
  %6 = atomicrmw sub ptr %refs_.i.i, i64 1 acq_rel, align 8
  %cmp.not.i.i.i = icmp eq i64 %6, 1
  br i1 %cmp.not.i.i.i, label %delete.notnull.i.i.i, label %_ZN9grpc_core13RefCountedPtrINS_19SubchannelInterfaceEED2Ev.exit

delete.notnull.i.i.i:                             ; preds = %if.end.i.i
  %vtable.i.i.i = load ptr, ptr %.pre, align 8
  %vfn.i.i.i = getelementptr inbounds i8, ptr %vtable.i.i.i, i64 16
  %7 = load ptr, ptr %vfn.i.i.i, align 8
  tail call void %7(ptr noundef nonnull align 8 dereferenceable(16) %.pre) #30
  br label %_ZN9grpc_core13RefCountedPtrINS_19SubchannelInterfaceEED2Ev.exit

terminate.lpad.i2:                                ; preds = %if.then.i.i1
  %8 = landingpad { ptr, i32 }
          catch ptr null
  %9 = extractvalue { ptr, i32 } %8, 0
  tail call void @__clang_call_terminate(ptr %9) #31
  unreachable

_ZN9grpc_core13RefCountedPtrINS_19SubchannelInterfaceEED2Ev.exit: ; preds = %do.end, %_ZN4absl12lts_202308026StatusD2Ev.exit, %if.end.i.i, %delete.notnull.i.i.i
  ret void

terminate.lpad:                                   ; preds = %if.then
  %10 = landingpad { ptr, i32 }
          catch ptr null
  %11 = extractvalue { ptr, i32 } %10, 0
  tail call void @__clang_call_terminate(ptr %11) #31
  unreachable
}